; Function Attrs: mustprogress nofree norecurse nounwind willreturn memory(readwrite, argmem: write, inaccessiblemem: none) uwtable
define void @_ZN8proxygen10TraceEventC2ENS_14TraceEventTypeEj(ptr noundef nonnull align 8 dereferenceable(80) %this, i32 noundef %type, i32 noundef %parentID) unnamed_addr #2 align 2 personality ptr @__gxx_personality_v0 {
entry:
  store i8 0, ptr %this, align 8
  %type_ = getelementptr inbounds i8, ptr %this, i64 4
  store i32 %type, ptr %type_, align 4
  %parentID_ = getelementptr inbounds i8, ptr %this, i64 12
  store i32 %parentID, ptr %parentID_, align 4
  %start_ = getelementptr inbounds i8, ptr %this, i64 16
  %0 = getelementptr inbounds i8, ptr %this, i64 40
  store i32 0, ptr %0, align 8
  %_M_parent.i.i.i.i.i = getelementptr inbounds i8, ptr %this, i64 48
  store ptr null, ptr %_M_parent.i.i.i.i.i, align 8
  %_M_left.i.i.i.i.i = getelementptr inbounds i8, ptr %this, i64 56
  tail call void @llvm.memset.p0.i64(ptr noundef nonnull align 8 dereferenceable(16) %start_, i8 0, i64 16, i1 false)
  store ptr %0, ptr %_M_left.i.i.i.i.i, align 8
  %_M_right.i.i.i.i.i = getelementptr inbounds i8, ptr %this, i64 64
  store ptr %0, ptr %_M_right.i.i.i.i.i, align 8
  %_M_node_count.i.i.i.i.i = getelementptr inbounds i8, ptr %this, i64 72
  store i64 0, ptr %_M_node_count.i.i.i.i.i, align 8
  %1 = atomicrmw add ptr @_ZZN8proxygen10TraceEventC1ENS_14TraceEventTypeEjE7counter, i32 1 seq_cst, align 4
  %id_ = getelementptr inbounds i8, ptr %this, i64 8
  store i32 %1, ptr %id_, align 8
  ret void
}